; Function Attrs: nounwind uwtable
define ptr @l_Lean_Compiler_LCNF_LambdaLifting_hasInstParam(ptr noundef readonly captures(none) %0, ptr noundef readnone captures(none) %1, ptr noundef readnone captures(none) %2, ptr noundef %3, ptr noundef %4, ptr noundef %5) local_unnamed_addr #0 {
lean_nat_lt.exit:
  %6 = getelementptr inbounds nuw i8, ptr %0, i64 24
  %7 = load ptr, ptr %6, align 8, !tbaa !4
  %8 = getelementptr i8, ptr %7, i64 8
  %.val = load i64, ptr %8, align 8, !tbaa !12
  %.mask = and i64 %.val, 9223372036854775807
  %.not = icmp eq i64 %.mask, 0
  br i1 %.not, label %lean_dec.exit23, label %lean_dec.exit

lean_dec.exit23:                                  ; preds = %lean_nat_lt.exit
  tail call void @lean_inc_heartbeat() #5
  %9 = tail call noalias ptr @mi_malloc_small(i64 noundef 24) #5
  %10 = icmp eq ptr %9, null
  br i1 %10, label %11, label %lean_alloc_ctor.exit

11:                                               ; preds = %lean_dec.exit23
  tail call void @lean_internal_panic_out_of_memory() #6
  unreachable

lean_alloc_ctor.exit:                             ; preds = %lean_dec.exit23
  %12 = getelementptr inbounds nuw i8, ptr %9, i64 4
  store i32 1, ptr %9, align 4, !tbaa !8
  store i32 131096, ptr %12, align 4
  %13 = getelementptr inbounds nuw i8, ptr %9, i64 8
  store ptr inttoptr (i64 1 to ptr), ptr %13, align 8, !tbaa !4
  %14 = getelementptr inbounds nuw i8, ptr %9, i64 16
  store ptr %5, ptr %14, align 8, !tbaa !4
  br label %16

lean_dec.exit:                                    ; preds = %lean_nat_lt.exit
  %15 = tail call ptr @l_Array_anyMUnsafe_any___at_Lean_Compiler_LCNF_LambdaLifting_hasInstParam___spec__1(ptr noundef nonnull %7, i64 noundef 0, i64 noundef %.mask, ptr poison, ptr poison, ptr noundef %3, ptr noundef %4, ptr noundef %5)
  br label %16

16:                                               ; preds = %lean_dec.exit, %lean_alloc_ctor.exit
  %.0 = phi ptr [ %9, %lean_alloc_ctor.exit ], [ %15, %lean_dec.exit ]
  ret ptr %.0
}